target datalayout = "e-m:e-p270:32:32-p271:32:32-p272:64:64-i64:64-i128:128-f80:128-n8:16:32:64-S128"
target triple = "x86_64-pc-linux-gnu"

%struct.HEVCSEIDynamicHDRVivid = type { ptr }
%struct.GetByteContext = type { ptr, ptr, ptr }

; Function Attrs: alwaysinline nounwind uwtable
define internal i32 @bytestream2_get_bytes_left(ptr noundef %0) #5 {
  %2 = alloca ptr, align 8
  store ptr %0, ptr %2, align 8, !tbaa !13
  %3 = load ptr, ptr %2, align 8, !tbaa !13
  %4 = getelementptr inbounds nuw %struct.GetByteContext, ptr %3, i32 0, i32 1
  %5 = load ptr, ptr %4, align 8, !tbaa !233
  %6 = load ptr, ptr %2, align 8, !tbaa !13
  %7 = getelementptr inbounds nuw %struct.GetByteContext, ptr %6, i32 0, i32 0
  %8 = load ptr, ptr %7, align 8, !tbaa !38
  %9 = ptrtoint ptr %5 to i64
  %10 = ptrtoint ptr %8 to i64
  %11 = sub i64 %9, %10
  %12 = trunc i64 %11 to i32
  ret i32 %12
}

; Function Attrs: nounwind uwtable
define internal i32 @decode_registered_user_data_dynamic_hdr_vivid(ptr noundef %0, ptr noundef %1) #0 {
  %3 = alloca i32, align 4
  %4 = alloca ptr, align 8
  %5 = alloca ptr, align 8
  %6 = alloca i64, align 8
  %7 = alloca i32, align 4
  %8 = alloca ptr, align 8
  %9 = alloca i32, align 4
  store ptr %0, ptr %4, align 8, !tbaa !239
  store ptr %1, ptr %5, align 8, !tbaa !13
  call void @llvm.lifetime.start.p0(i64 8, ptr %6) #10
  call void @llvm.lifetime.start.p0(i64 4, ptr %7) #10
  call void @llvm.lifetime.start.p0(i64 8, ptr %8) #10
  %10 = call ptr @av_dynamic_hdr_vivid_alloc(ptr noundef %6)
  store ptr %10, ptr %8, align 8, !tbaa !241
  %11 = load ptr, ptr %8, align 8, !tbaa !241
  %12 = icmp ne ptr %11, null
  br i1 %12, label %14, label %13

13:                                               ; preds = %2
  store i32 -12, ptr %3, align 4
  store i32 1, ptr %9, align 4
  br label %42

14:                                               ; preds = %2
  %15 = load ptr, ptr %8, align 8, !tbaa !241
  %16 = load ptr, ptr %5, align 8, !tbaa !13
  %17 = getelementptr inbounds nuw %struct.GetByteContext, ptr %16, i32 0, i32 0
  %18 = load ptr, ptr %17, align 8, !tbaa !38
  %19 = load ptr, ptr %5, align 8, !tbaa !13
  %20 = call i32 @bytestream2_get_bytes_left(ptr noundef %19)
  %21 = call i32 @ff_parse_itu_t_t35_to_dynamic_hdr_vivid(ptr noundef %15, ptr noundef %18, i32 noundef %20)
  store i32 %21, ptr %7, align 4, !tbaa !9
  %22 = load i32, ptr %7, align 4, !tbaa !9
  %23 = icmp slt i32 %22, 0
  br i1 %23, label %24, label %27

24:                                               ; preds = %14
  %25 = load ptr, ptr %8, align 8, !tbaa !241
  call void @av_free(ptr noundef %25)
  %26 = load i32, ptr %7, align 4, !tbaa !9
  store i32 %26, ptr %3, align 4
  store i32 1, ptr %9, align 4
  br label %42

27:                                               ; preds = %14
  %28 = load ptr, ptr %4, align 8, !tbaa !239
  %29 = getelementptr inbounds nuw %struct.HEVCSEIDynamicHDRVivid, ptr %28, i32 0, i32 0
  call void @av_buffer_unref(ptr noundef %29)
  %30 = load ptr, ptr %8, align 8, !tbaa !241
  %31 = load i64, ptr %6, align 8, !tbaa !60
  %32 = call ptr @av_buffer_create(ptr noundef %30, i64 noundef %31, ptr noundef null, ptr noundef null, i32 noundef 0)
  %33 = load ptr, ptr %4, align 8, !tbaa !239
  %34 = getelementptr inbounds nuw %struct.HEVCSEIDynamicHDRVivid, ptr %33, i32 0, i32 0
  store ptr %32, ptr %34, align 8, !tbaa !243
  %35 = load ptr, ptr %4, align 8, !tbaa !239
  %36 = getelementptr inbounds nuw %struct.HEVCSEIDynamicHDRVivid, ptr %35, i32 0, i32 0
  %37 = load ptr, ptr %36, align 8, !tbaa !243
  %38 = icmp ne ptr %37, null
  br i1 %38, label %41, label %39

39:                                               ; preds = %27
  %40 = load ptr, ptr %8, align 8, !tbaa !241
  call void @av_free(ptr noundef %40)
  store i32 -12, ptr %3, align 4
  store i32 1, ptr %9, align 4
  br label %42

41:                                               ; preds = %27
  store i32 0, ptr %3, align 4
  store i32 1, ptr %9, align 4
  br label %42

42:                                               ; preds = %41, %39, %24, %13
  call void @llvm.lifetime.end.p0(i64 8, ptr %8) #10
  call void @llvm.lifetime.end.p0(i64 4, ptr %7) #10
  call void @llvm.lifetime.end.p0(i64 8, ptr %6) #10
  %43 = load i32, ptr %3, align 4
  ret i32 %43
}