; Function Attrs: nounwind uwtable
define internal fastcc range(i32 -2147483648, 1) i32 @decode_registered_user_data_dynamic_hdr_vivid(ptr noundef %0, ptr noundef readonly captures(none) %1) unnamed_addr #0 {
  %3 = alloca i64, align 8
  call void @llvm.lifetime.start.p0(i64 8, ptr nonnull %3) #9
  %4 = call ptr @av_dynamic_hdr_vivid_alloc(ptr noundef nonnull %3) #9
  %.not = icmp eq ptr %4, null
  br i1 %.not, label %18, label %5

5:                                                ; preds = %2
  %6 = load ptr, ptr %1, align 8, !tbaa !10
  %7 = getelementptr inbounds nuw i8, ptr %1, i64 8
  %8 = load ptr, ptr %7, align 8, !tbaa !4
  %9 = ptrtoint ptr %8 to i64
  %10 = ptrtoint ptr %6 to i64
  %11 = sub i64 %9, %10
  %12 = trunc i64 %11 to i32
  %13 = call i32 @ff_parse_itu_t_t35_to_dynamic_hdr_vivid(ptr noundef nonnull %4, ptr noundef %6, i32 noundef %12) #9
  %14 = icmp slt i32 %13, 0
  br i1 %14, label %.sink.split, label %15

15:                                               ; preds = %5
  call void @av_buffer_unref(ptr noundef %0) #9
  %16 = load i64, ptr %3, align 8, !tbaa !161
  %17 = call ptr @av_buffer_create(ptr noundef nonnull %4, i64 noundef %16, ptr noundef null, ptr noundef null, i32 noundef 0) #9
  store ptr %17, ptr %0, align 8, !tbaa !189
  %.not14 = icmp eq ptr %17, null
  br i1 %.not14, label %.sink.split, label %18

.sink.split:                                      ; preds = %15, %5
  %.0.ph = phi i32 [ %13, %5 ], [ -12, %15 ]
  call void @av_free(ptr noundef nonnull %4) #9
  br label %18

18:                                               ; preds = %.sink.split, %15, %2
  %.0 = phi i32 [ -12, %2 ], [ 0, %15 ], [ %.0.ph, %.sink.split ]
  call void @llvm.lifetime.end.p0(i64 8, ptr nonnull %3) #9
  ret i32 %.0
}